; ModuleID = '702.c'
source_filename = "702.c"
target datalayout = "e-m:e-p270:32:32-p271:32:32-p272:64:64-i64:64-f80:128-n8:16:32:64-S128"
target triple = "x86_64-pc-linux-gnu"

@.str = private unnamed_addr constant [4 x i8] c"%d\0A\00", align 1
@.str.1 = private unnamed_addr constant [5 x i8] c"%lf \00", align 1
@.str.2 = private unnamed_addr constant [7 x i8] c"%.5lf\0A\00", align 1

; Function Attrs: noinline nounwind uwtable
define dso_local i32 @main() #0 {
  %1 = alloca i32, align 4
  %2 = alloca i32, align 4
  %3 = alloca i32, align 4
  %4 = alloca i32, align 4
  %5 = alloca [100 x i32], align 16
  %6 = alloca [100 x double], align 16
  %7 = alloca double, align 8
  %8 = alloca double, align 8
  %9 = alloca double, align 8
  %10 = alloca double, align 8
  %11 = alloca [100 x double], align 16
  store i32 0, i32* %1, align 4
  store double 0.000000e+00, double* %7, align 8
  store double 0.000000e+00, double* %10, align 8
  %12 = call i32 (i8*, ...) @__isoc99_scanf(i8* getelementptr inbounds ([4 x i8], [4 x i8]* @.str, i64 0, i64 0), i32* %2)
  store i32 0, i32* %3, align 4
  br label %13

13:                                               ; preds = %95, %0
  %14 = load i32, i32* %3, align 4
  %15 = load i32, i32* %2, align 4
  %16 = icmp slt i32 %14, %15
  br i1 %16, label %17, label %98

17:                                               ; preds = %13
  %18 = load i32, i32* %3, align 4
  %19 = sext i32 %18 to i64
  %20 = getelementptr inbounds [100 x i32], [100 x i32]* %5, i64 0, i64 %19
  %21 = call i32 (i8*, ...) @__isoc99_scanf(i8* getelementptr inbounds ([4 x i8], [4 x i8]* @.str, i64 0, i64 0), i32* %20)
  store i32 0, i32* %4, align 4
  br label %22

22:                                               ; preds = %40, %17
  %23 = load i32, i32* %4, align 4
  %24 = load i32, i32* %3, align 4
  %25 = sext i32 %24 to i64
  %26 = getelementptr inbounds [100 x i32], [100 x i32]* %5, i64 0, i64 %25
  %27 = load i32, i32* %26, align 4
  %28 = icmp slt i32 %23, %27
  br i1 %28, label %29, label %43

29:                                               ; preds = %22
  %30 = load i32, i32* %4, align 4
  %31 = sext i32 %30 to i64
  %32 = getelementptr inbounds [100 x double], [100 x double]* %6, i64 0, i64 %31
  %33 = call i32 (i8*, ...) @__isoc99_scanf(i8* getelementptr inbounds ([5 x i8], [5 x i8]* @.str.1, i64 0, i64 0), double* %32)
  %34 = load i32, i32* %4, align 4
  %35 = sext i32 %34 to i64
  %36 = getelementptr inbounds [100 x double], [100 x double]* %6, i64 0, i64 %35
  %37 = load double, double* %36, align 8
  %38 = load double, double* %7, align 8
  %39 = fadd double %38, %37
  store double %39, double* %7, align 8
  br label %40

40:                                               ; preds = %29
  %41 = load i32, i32* %4, align 4
  %42 = add nsw i32 %41, 1
  store i32 %42, i32* %4, align 4
  br label %22

43:                                               ; preds = %22
  %44 = load double, double* %7, align 8
  %45 = load i32, i32* %3, align 4
  %46 = sext i32 %45 to i64
  %47 = getelementptr inbounds [100 x i32], [100 x i32]* %5, i64 0, i64 %46
  %48 = load i32, i32* %47, align 4
  %49 = sitofp i32 %48 to double
  %50 = fdiv double %44, %49
  store double %50, double* %8, align 8
  store i32 0, i32* %4, align 4
  br label %51

51:                                               ; preds = %81, %43
  %52 = load i32, i32* %4, align 4
  %53 = load i32, i32* %3, align 4
  %54 = sext i32 %53 to i64
  %55 = getelementptr inbounds [100 x i32], [100 x i32]* %5, i64 0, i64 %54
  %56 = load i32, i32* %55, align 4
  %57 = icmp slt i32 %52, %56
  br i1 %57, label %58, label %84

58:                                               ; preds = %51
  %59 = load i32, i32* %4, align 4
  %60 = sext i32 %59 to i64
  %61 = getelementptr inbounds [100 x double], [100 x double]* %6, i64 0, i64 %60
  %62 = load double, double* %61, align 8
  %63 = load double, double* %8, align 8
  %64 = fsub double %62, %63
  %65 = load i32, i32* %4, align 4
  %66 = sext i32 %65 to i64
  %67 = getelementptr inbounds [100 x double], [100 x double]* %6, i64 0, i64 %66
  %68 = load double, double* %67, align 8
  %69 = load double, double* %8, align 8
  %70 = fsub double %68, %69
  %71 = fmul double %64, %70
  %72 = load i32, i32* %4, align 4
  %73 = sext i32 %72 to i64
  %74 = getelementptr inbounds [100 x double], [100 x double]* %11, i64 0, i64 %73
  store double %71, double* %74, align 8
  %75 = load i32, i32* %4, align 4
  %76 = sext i32 %75 to i64
  %77 = getelementptr inbounds [100 x double], [100 x double]* %11, i64 0, i64 %76
  %78 = load double, double* %77, align 8
  %79 = load double, double* %10, align 8
  %80 = fadd double %79, %78
  store double %80, double* %10, align 8
  br label %81

81:                                               ; preds = %58
  %82 = load i32, i32* %4, align 4
  %83 = add nsw i32 %82, 1
  store i32 %83, i32* %4, align 4
  br label %51

84:                                               ; preds = %51
  %85 = load double, double* %10, align 8
  %86 = load i32, i32* %3, align 4
  %87 = sext i32 %86 to i64
  %88 = getelementptr inbounds [100 x i32], [100 x i32]* %5, i64 0, i64 %87
  %89 = load i32, i32* %88, align 4
  %90 = sitofp i32 %89 to double
  %91 = fdiv double %85, %90
  %92 = call double @sqrt(double %91) #3
  store double %92, double* %9, align 8
  %93 = load double, double* %9, align 8
  %94 = call i32 (i8*, ...) @printf(i8* getelementptr inbounds ([7 x i8], [7 x i8]* @.str.2, i64 0, i64 0), double %93)
  store double 0.000000e+00, double* %7, align 8
  store double 0.000000e+00, double* %10, align 8
  br label %95

95:                                               ; preds = %84
  %96 = load i32, i32* %3, align 4
  %97 = add nsw i32 %96, 1
  store i32 %97, i32* %3, align 4
  br label %13

98:                                               ; preds = %13
  ret i32 0
}

declare dso_local i32 @__isoc99_scanf(i8*, ...) #1

; Function Attrs: nounwind
declare dso_local double @sqrt(double) #2

declare dso_local i32 @printf(i8*, ...) #1


!llvm.module.flags = !{!0}
!llvm.ident = !{!1}

!0 = !{i32 1, !"wchar_size", i32 4}
!1 = !{!"clang version 10.0.0-4ubuntu1 "}
